; Function Attrs: nounwind uwtable
define ptr @zend_map_ptr_new() local_unnamed_addr #0 {
  %1 = load i64, ptr getelementptr inbounds (%struct._zend_compiler_globals, ptr @compiler_globals, i64 0, i32 39), align 8
  %2 = load i64, ptr getelementptr inbounds (%struct._zend_compiler_globals, ptr @compiler_globals, i64 0, i32 38), align 8
  %.not = icmp ult i64 %1, %2
  %.pre = load ptr, ptr getelementptr inbounds (%struct._zend_compiler_globals, ptr @compiler_globals, i64 0, i32 36), align 8
  br i1 %.not, label %11, label %3

3:                                                ; preds = %0
  %4 = and i64 %1, -4096
  %5 = add i64 %4, 4096
  store i64 %5, ptr getelementptr inbounds (%struct._zend_compiler_globals, ptr @compiler_globals, i64 0, i32 38), align 8
  %6 = shl i64 %5, 3
  %7 = tail call ptr @__zend_realloc(ptr noundef %.pre, i64 noundef %6) #31
  store ptr %7, ptr getelementptr inbounds (%struct._zend_compiler_globals, ptr @compiler_globals, i64 0, i32 36), align 8
  %8 = ptrtoint ptr %7 to i64
  %9 = add i64 %8, -1
  %10 = inttoptr i64 %9 to ptr
  store ptr %10, ptr getelementptr inbounds (%struct._zend_compiler_globals, ptr @compiler_globals, i64 0, i32 37), align 8
  %.pre2 = load i64, ptr getelementptr inbounds (%struct._zend_compiler_globals, ptr @compiler_globals, i64 0, i32 39), align 8
  br label %11

11:                                               ; preds = %3, %0
  %12 = phi i64 [ %.pre2, %3 ], [ %1, %0 ]
  %13 = phi ptr [ %7, %3 ], [ %.pre, %0 ]
  %14 = getelementptr inbounds ptr, ptr %13, i64 %12
  store ptr null, ptr %14, align 8
  %15 = load i64, ptr getelementptr inbounds (%struct._zend_compiler_globals, ptr @compiler_globals, i64 0, i32 39), align 8
  %16 = add i64 %15, 1
  store i64 %16, ptr getelementptr inbounds (%struct._zend_compiler_globals, ptr @compiler_globals, i64 0, i32 39), align 8
  %17 = load ptr, ptr getelementptr inbounds (%struct._zend_compiler_globals, ptr @compiler_globals, i64 0, i32 37), align 8
  %18 = ptrtoint ptr %14 to i64
  %19 = ptrtoint ptr %17 to i64
  %20 = sub i64 %18, %19
  %21 = inttoptr i64 %20 to ptr
  ret ptr %21
}